target datalayout = "e-m:e-p270:32:32-p271:32:32-p272:64:64-i64:64-i128:128-f80:128-n8:16:32:64-S128"
target triple = "x86_64-pc-linux-gnu"

%"class.sat::literal" = type { i32 }
%"class.sat::watched" = type <{ i64, i32, [4 x i8] }>
%class.vector = type { ptr }

; Function Attrs: mustprogress nounwind uwtable
define linkonce_odr hidden noundef i64 @_ZN3sat15constraint_base8ext_sizeEv() #7 comdat align 2 {
  ret i64 8
}

; Function Attrs: mustprogress nounwind uwtable
define linkonce_odr hidden noundef i32 @_ZNK6vectorIN3sat7watchedELb1EjE4sizeEv(ptr noundef nonnull align 8 dereferenceable(8) %0) #7 comdat align 2 {
  %2 = alloca i32, align 4
  %3 = alloca ptr, align 8
  store ptr %0, ptr %3, align 8, !tbaa !32
  %4 = load ptr, ptr %3, align 8
  %5 = getelementptr inbounds nuw %class.vector, ptr %4, i32 0, i32 0
  %6 = load ptr, ptr %5, align 8, !tbaa !44
  %7 = icmp eq ptr %6, null
  br i1 %7, label %8, label %9

8:                                                ; preds = %1
  store i32 0, ptr %2, align 4
  br label %14

9:                                                ; preds = %1
  %10 = getelementptr inbounds nuw %class.vector, ptr %4, i32 0, i32 0
  %11 = load ptr, ptr %10, align 8, !tbaa !44
  %12 = getelementptr inbounds i32, ptr %11, i64 -1
  %13 = load i32, ptr %12, align 4, !tbaa !8
  store i32 %13, ptr %2, align 4
  br label %14

14:                                               ; preds = %9, %8
  %15 = load i32, ptr %2, align 4
  ret i32 %15
}

; Function Attrs: mustprogress uwtable
define linkonce_odr hidden noundef ptr @_ZN3sat15constraint_base12mem2base_ptrEPKv(ptr noundef %0) #4 comdat align 2 {
  %2 = alloca ptr, align 8
  store ptr %0, ptr %2, align 8, !tbaa !53
  %3 = load ptr, ptr %2, align 8, !tbaa !53
  %4 = call noundef i64 @_ZN3sat15constraint_base8ext_sizeEv()
  %5 = sub i64 0, %4
  %6 = getelementptr inbounds i8, ptr %3, i64 %5
  ret ptr %6
}

; Function Attrs: mustprogress nounwind uwtable
define linkonce_odr hidden noundef zeroext i1 @_ZNK3sat7watchedeqERKS0_(ptr noundef nonnull align 8 dereferenceable(12) %0, ptr noundef nonnull align 8 dereferenceable(12) %1) #7 comdat align 2 {
  %3 = alloca ptr, align 8
  %4 = alloca ptr, align 8
  store ptr %0, ptr %3, align 8, !tbaa !34
  store ptr %1, ptr %4, align 8, !tbaa !34
  %5 = load ptr, ptr %3, align 8
  %6 = getelementptr inbounds nuw %"class.sat::watched", ptr %5, i32 0, i32 0
  %7 = load i64, ptr %6, align 8, !tbaa !38
  %8 = load ptr, ptr %4, align 8, !tbaa !34
  %9 = getelementptr inbounds nuw %"class.sat::watched", ptr %8, i32 0, i32 0
  %10 = load i64, ptr %9, align 8, !tbaa !38
  %11 = icmp eq i64 %7, %10
  br i1 %11, label %12, label %19

12:                                               ; preds = %2
  %13 = getelementptr inbounds nuw %"class.sat::watched", ptr %5, i32 0, i32 1
  %14 = load i32, ptr %13, align 8, !tbaa !40
  %15 = load ptr, ptr %4, align 8, !tbaa !34
  %16 = getelementptr inbounds nuw %"class.sat::watched", ptr %15, i32 0, i32 1
  %17 = load i32, ptr %16, align 8, !tbaa !40
  %18 = icmp eq i32 %14, %17
  br label %19

19:                                               ; preds = %12, %2
  %20 = phi i1 [ false, %2 ], [ %18, %12 ]
  ret i1 %20
}

; Function Attrs: mustprogress uwtable
define linkonce_odr hidden noundef ptr @_ZNK6vectorIN3sat7watchedELb1EjE3endEv(ptr noundef nonnull align 8 dereferenceable(8) %0) #4 comdat align 2 {
  %2 = alloca ptr, align 8
  store ptr %0, ptr %2, align 8, !tbaa !32
  %3 = load ptr, ptr %2, align 8
  %4 = getelementptr inbounds nuw %class.vector, ptr %3, i32 0, i32 0
  %5 = load ptr, ptr %4, align 8, !tbaa !44
  %6 = call noundef i32 @_ZNK6vectorIN3sat7watchedELb1EjE4sizeEv(ptr noundef nonnull align 8 dereferenceable(8) %3)
  %7 = zext i32 %6 to i64
  %8 = getelementptr inbounds nuw %"class.sat::watched", ptr %5, i64 %7
  ret ptr %8
}

; Function Attrs: mustprogress nounwind uwtable
define linkonce_odr hidden noundef ptr @_ZNK6vectorIN3sat7watchedELb1EjE5beginEv(ptr noundef nonnull align 8 dereferenceable(8) %0) #7 comdat align 2 {
  %2 = alloca ptr, align 8
  store ptr %0, ptr %2, align 8, !tbaa !32
  %3 = load ptr, ptr %2, align 8
  %4 = getelementptr inbounds nuw %class.vector, ptr %3, i32 0, i32 0
  %5 = load ptr, ptr %4, align 8, !tbaa !44
  ret ptr %5
}

; Function Attrs: mustprogress uwtable
define linkonce_odr hidden noundef i64 @_ZN3sat15constraint_base8mem2baseEPKv(ptr noundef %0) #4 comdat align 2 {
  %2 = alloca ptr, align 8
  store ptr %0, ptr %2, align 8, !tbaa !53
  %3 = load ptr, ptr %2, align 8, !tbaa !53
  %4 = call noundef ptr @_ZN3sat15constraint_base12mem2base_ptrEPKv(ptr noundef %3)
  %5 = ptrtoint ptr %4 to i64
  ret i64 %5
}

; Function Attrs: mustprogress uwtable
define linkonce_odr hidden noundef zeroext i1 @_ZNK6vectorIN3sat7watchedELb1EjE8containsERKS1_(ptr noundef nonnull align 8 dereferenceable(8) %0, ptr noundef nonnull align 8 dereferenceable(12) %1) #4 comdat align 2 {
  %3 = alloca i1, align 1
  %4 = alloca ptr, align 8
  %5 = alloca ptr, align 8
  %6 = alloca ptr, align 8
  %7 = alloca ptr, align 8
  %8 = alloca i32, align 4
  store ptr %0, ptr %4, align 8, !tbaa !32
  store ptr %1, ptr %5, align 8, !tbaa !34
  %9 = load ptr, ptr %4, align 8
  call void @llvm.lifetime.start.p0(i64 8, ptr %6) #3
  %10 = call noundef ptr @_ZNK6vectorIN3sat7watchedELb1EjE5beginEv(ptr noundef nonnull align 8 dereferenceable(8) %9)
  store ptr %10, ptr %6, align 8, !tbaa !34
  call void @llvm.lifetime.start.p0(i64 8, ptr %7) #3
  %11 = call noundef ptr @_ZNK6vectorIN3sat7watchedELb1EjE3endEv(ptr noundef nonnull align 8 dereferenceable(8) %9)
  store ptr %11, ptr %7, align 8, !tbaa !34
  br label %12

12:                                               ; preds = %22, %2
  %13 = load ptr, ptr %6, align 8, !tbaa !34
  %14 = load ptr, ptr %7, align 8, !tbaa !34
  %15 = icmp ne ptr %13, %14
  br i1 %15, label %16, label %25

16:                                               ; preds = %12
  %17 = load ptr, ptr %6, align 8, !tbaa !34
  %18 = load ptr, ptr %5, align 8, !tbaa !34
  %19 = call noundef zeroext i1 @_ZNK3sat7watchedeqERKS0_(ptr noundef nonnull align 8 dereferenceable(12) %17, ptr noundef nonnull align 8 dereferenceable(12) %18)
  br i1 %19, label %20, label %21

20:                                               ; preds = %16
  store i1 true, ptr %3, align 1
  store i32 1, ptr %8, align 4
  br label %26

21:                                               ; preds = %16
  br label %22

22:                                               ; preds = %21
  %23 = load ptr, ptr %6, align 8, !tbaa !34
  %24 = getelementptr inbounds nuw %"class.sat::watched", ptr %23, i32 1
  store ptr %24, ptr %6, align 8, !tbaa !34
  br label %12, !llvm.loop !36

25:                                               ; preds = %12
  store i1 false, ptr %3, align 1
  store i32 1, ptr %8, align 4
  br label %26

26:                                               ; preds = %25, %20
  call void @llvm.lifetime.end.p0(i64 8, ptr %7) #3
  call void @llvm.lifetime.end.p0(i64 8, ptr %6) #3
  %27 = load i1, ptr %3, align 1
  ret i1 %27
}

; Function Attrs: mustprogress nounwind uwtable
define linkonce_odr hidden void @_ZN3sat7watchedC2Em(ptr noundef nonnull align 8 dereferenceable(12) %0, i64 noundef %1) unnamed_addr #7 comdat align 2 {
  %3 = alloca ptr, align 8
  %4 = alloca i64, align 8
  store ptr %0, ptr %3, align 8, !tbaa !34
  store i64 %1, ptr %4, align 8, !tbaa !37
  %5 = load ptr, ptr %3, align 8
  %6 = getelementptr inbounds nuw %"class.sat::watched", ptr %5, i32 0, i32 0
  %7 = load i64, ptr %4, align 8, !tbaa !37
  store i64 %7, ptr %6, align 8, !tbaa !38
  %8 = getelementptr inbounds nuw %"class.sat::watched", ptr %5, i32 0, i32 1
  store i32 2, ptr %8, align 8, !tbaa !40
  ret void
}

; Function Attrs: mustprogress uwtable
define linkonce_odr hidden noundef i64 @_ZNK2pb10constraint6cindexEv(ptr noundef nonnull align 8 dereferenceable(64) %0) #4 comdat align 2 {
  %2 = alloca ptr, align 8
  store ptr %0, ptr %2, align 8, !tbaa !3
  %3 = load ptr, ptr %2, align 8
  %4 = call noundef i64 @_ZN3sat15constraint_base8mem2baseEPKv(ptr noundef %3)
  ret i64 %4
}

; Function Attrs: mustprogress nounwind uwtable
define linkonce_odr hidden i32 @_ZN3satcoENS_7literalE(i32 %0) #7 comdat {
  %2 = alloca %"class.sat::literal", align 4
  %3 = alloca %"class.sat::literal", align 4
  %4 = getelementptr inbounds nuw %"class.sat::literal", ptr %3, i32 0, i32 0
  store i32 %0, ptr %4, align 4
  %5 = getelementptr inbounds nuw %"class.sat::literal", ptr %3, i32 0, i32 0
  %6 = load i32, ptr %5, align 4, !tbaa !16
  %7 = xor i32 %6, 1
  %8 = getelementptr inbounds nuw %"class.sat::literal", ptr %3, i32 0, i32 0
  store i32 %7, ptr %8, align 4, !tbaa !16
  call void @llvm.memcpy.p0.p0.i64(ptr align 4 %2, ptr align 4 %3, i64 4, i1 false), !tbaa.struct !18
  %9 = getelementptr inbounds nuw %"class.sat::literal", ptr %2, i32 0, i32 0
  %10 = load i32, ptr %9, align 4
  ret i32 %10
}

; Function Attrs: mustprogress uwtable
define hidden noundef zeroext i1 @_ZNK2pb10constraint10is_watchedERKNS_16solver_interfaceEN3sat7literalE(ptr noundef nonnull align 8 dereferenceable(64) %0, ptr noundef nonnull align 8 dereferenceable(8) %1, i32 %2) #4 align 2 {
  %4 = alloca %"class.sat::literal", align 4
  %5 = alloca ptr, align 8
  %6 = alloca ptr, align 8
  %7 = alloca %"class.sat::literal", align 4
  %8 = alloca %"class.sat::literal", align 4
  %9 = alloca %"class.sat::watched", align 8
  %10 = getelementptr inbounds nuw %"class.sat::literal", ptr %4, i32 0, i32 0
  store i32 %2, ptr %10, align 4
  store ptr %0, ptr %5, align 8, !tbaa !3
  store ptr %1, ptr %6, align 8, !tbaa !30
  %11 = load ptr, ptr %5, align 8
  %12 = load ptr, ptr %6, align 8, !tbaa !30
  call void @llvm.memcpy.p0.p0.i64(ptr align 4 %8, ptr align 4 %4, i64 4, i1 false), !tbaa.struct !18
  %13 = getelementptr inbounds nuw %"class.sat::literal", ptr %8, i32 0, i32 0
  %14 = load i32, ptr %13, align 4
  %15 = call i32 @_ZN3satcoENS_7literalE(i32 %14)
  %16 = getelementptr inbounds nuw %"class.sat::literal", ptr %7, i32 0, i32 0
  store i32 %15, ptr %16, align 4
  %17 = getelementptr inbounds nuw %"class.sat::literal", ptr %7, i32 0, i32 0
  %18 = load i32, ptr %17, align 4
  %19 = load ptr, ptr %12, align 8, !tbaa !10
  %20 = getelementptr inbounds ptr, ptr %19, i64 9
  %21 = load ptr, ptr %20, align 8
  %22 = call noundef nonnull align 8 dereferenceable(8) ptr %21(ptr noundef nonnull align 8 dereferenceable(8) %12, i32 %18)
  call void @llvm.lifetime.start.p0(i64 16, ptr %9) #3
  %23 = call noundef i64 @_ZNK2pb10constraint6cindexEv(ptr noundef nonnull align 8 dereferenceable(64) %11)
  call void @_ZN3sat7watchedC2Em(ptr noundef nonnull align 8 dereferenceable(12) %9, i64 noundef %23)
  %24 = call noundef zeroext i1 @_ZNK6vectorIN3sat7watchedELb1EjE8containsERKS1_(ptr noundef nonnull align 8 dereferenceable(8) %22, ptr noundef nonnull align 8 dereferenceable(12) %9)
  call void @llvm.lifetime.end.p0(i64 16, ptr %9) #3
  ret i1 %24
}